; Function Attrs: nounwind uwtable
define internal fastcc void @_log_script_argv(ptr noundef nonnull readonly captures(none) %0, ptr noundef %1) unnamed_addr #0 {
  %3 = alloca ptr, align 8
  call void @llvm.lifetime.start.p0(i64 8, ptr nonnull %3) #14
  store ptr null, ptr %3, align 8
  %4 = load i64, ptr getelementptr inbounds nuw (i8, ptr @slurm_conf, i64 320), align 8
  %5 = and i64 %4, 140737488355328
  %.not = icmp eq i64 %5, 0
  br i1 %.not, label %26, label %.preheader

.preheader:                                       ; preds = %2
  %6 = load ptr, ptr %0, align 8
  %.not913 = icmp eq ptr %6, null
  br i1 %.not913, label %._crit_edge, label %.lr.ph

.lr.ph:                                           ; preds = %.preheader, %10
  %7 = phi ptr [ %13, %10 ], [ %6, %.preheader ]
  %indvars.iv = phi i64 [ %indvars.iv.next, %10 ], [ 0, %.preheader ]
  %.not12 = icmp eq i64 %indvars.iv, 0
  br i1 %.not12, label %10, label %8

8:                                                ; preds = %.lr.ph
  %9 = getelementptr inbounds nuw ptr, ptr %0, i64 %indvars.iv
  call void @_xstrcat(ptr noundef nonnull %3, ptr noundef nonnull @.str.150) #14
  %.pre = load ptr, ptr %9, align 8
  br label %10

10:                                               ; preds = %8, %.lr.ph
  %11 = phi ptr [ %.pre, %8 ], [ %7, %.lr.ph ]
  call void @_xstrcat(ptr noundef nonnull %3, ptr noundef %11) #14
  %indvars.iv.next = add nuw nsw i64 %indvars.iv, 1
  %12 = getelementptr inbounds nuw ptr, ptr %0, i64 %indvars.iv.next
  %13 = load ptr, ptr %12, align 8
  %.not9 = icmp eq ptr %13, null
  br i1 %.not9, label %._crit_edge, label %.lr.ph, !llvm.loop !28

._crit_edge:                                      ; preds = %10, %.preheader
  %14 = call i32 @get_log_level() #14
  %15 = icmp sgt i32 %14, 2
  br i1 %15, label %16, label %18

16:                                               ; preds = %._crit_edge
  %17 = load ptr, ptr %3, align 8
  call void (i32, ptr, ...) @log_var(i32 noundef 3, ptr noundef nonnull @.str.151, ptr noundef nonnull @plugin_type, ptr noundef nonnull @__func__._log_script_argv, ptr noundef %17) #14
  br label %18

18:                                               ; preds = %16, %._crit_edge
  %.not10 = icmp eq ptr %1, null
  br i1 %.not10, label %25, label %19

19:                                               ; preds = %18
  %20 = load i8, ptr %1, align 1
  %.not11 = icmp eq i8 %20, 0
  br i1 %.not11, label %25, label %21

21:                                               ; preds = %19
  %22 = call i32 @get_log_level() #14
  %23 = icmp sgt i32 %22, 2
  br i1 %23, label %24, label %25

24:                                               ; preds = %21
  call void (i32, ptr, ...) @log_var(i32 noundef 3, ptr noundef nonnull @.str.151, ptr noundef nonnull @plugin_type, ptr noundef nonnull @__func__._log_script_argv, ptr noundef nonnull %1) #14
  br label %25

25:                                               ; preds = %21, %24, %19, %18
  call void @slurm_xfree(ptr noundef nonnull %3) #14
  br label %26

26:                                               ; preds = %2, %25
  call void @llvm.lifetime.end.p0(i64 8, ptr nonnull %3) #14
  ret void
}